target datalayout = "e-m:e-p270:32:32-p271:32:32-p272:64:64-i64:64-i128:128-f80:128-n8:16:32:64-S128"
target triple = "x86_64-pc-linux-gnu"

%class.PhiSimplifier = type <{ %class.BlockClosure, i8, [7 x i8] }>
%class.BlockClosure = type { ptr }
%class.SubstitutionResolver = type { %class.BlockClosure, %class.ValueVisitor }
%class.ValueVisitor = type { ptr }

@_ZTV13PhiSimplifier = hidden unnamed_addr constant { [3 x ptr] } { [3 x ptr] [ptr null, ptr null, ptr @_ZN13PhiSimplifier8block_doEP10BlockBegin] }, align 8
@_ZTV12BlockClosure = linkonce_odr hidden unnamed_addr constant { [3 x ptr] } { [3 x ptr] [ptr null, ptr null, ptr @__cxa_pure_virtual] }, comdat, align 8
@_ZTV20SubstitutionResolver = external unnamed_addr constant { [4 x ptr], [3 x ptr] }, align 8
@_ZTV12ValueVisitor = linkonce_odr hidden unnamed_addr constant { [3 x ptr] } { [3 x ptr] [ptr null, ptr null, ptr @__cxa_pure_virtual] }, comdat, align 8

; Function Attrs: mustprogress nounwind uwtable
define linkonce_odr hidden void @_ZN12ValueVisitorC2Ev(ptr noundef nonnull align 8 dereferenceable(8) %0) unnamed_addr #1 comdat align 2 {
  %2 = alloca ptr, align 8
  store ptr %0, ptr %2, align 8
  %3 = load ptr, ptr %2, align 8
  store ptr getelementptr inbounds inrange(-16, 8) ({ [3 x ptr] }, ptr @_ZTV12ValueVisitor, i32 0, i32 0, i32 2), ptr %3, align 8
  ret void
}

; Function Attrs: mustprogress nounwind uwtable
define linkonce_odr hidden void @_ZN20SubstitutionResolverC2EP10BlockBegin(ptr noundef nonnull align 8 dereferenceable(16) %0, ptr noundef %1) unnamed_addr #1 comdat align 2 {
  %3 = alloca ptr, align 8
  %4 = alloca ptr, align 8
  store ptr %0, ptr %3, align 8
  store ptr %1, ptr %4, align 8
  %5 = load ptr, ptr %3, align 8
  call void @_ZN12BlockClosureC2Ev(ptr noundef nonnull align 8 dereferenceable(8) %5) #7
  %6 = getelementptr inbounds i8, ptr %5, i64 8
  call void @_ZN12ValueVisitorC2Ev(ptr noundef nonnull align 8 dereferenceable(8) %6) #7
  store ptr getelementptr inbounds inrange(-16, 16) ({ [4 x ptr], [3 x ptr] }, ptr @_ZTV20SubstitutionResolver, i32 0, i32 0, i32 2), ptr %5, align 8
  %7 = getelementptr inbounds i8, ptr %5, i64 8
  store ptr getelementptr inbounds inrange(-16, 8) ({ [4 x ptr], [3 x ptr] }, ptr @_ZTV20SubstitutionResolver, i32 0, i32 1, i32 2), ptr %7, align 8
  %8 = load ptr, ptr %4, align 8
  call void @_ZN10BlockBegin16iterate_preorderEP12BlockClosure(ptr noundef nonnull align 8 dereferenceable(408) %8, ptr noundef %5)
  ret void
}

; Function Attrs: mustprogress nounwind uwtable
define linkonce_odr hidden void @_ZN12BlockClosureC2Ev(ptr noundef nonnull align 8 dereferenceable(8) %0) unnamed_addr #1 comdat align 2 {
  %2 = alloca ptr, align 8
  store ptr %0, ptr %2, align 8
  %3 = load ptr, ptr %2, align 8
  store ptr getelementptr inbounds inrange(-16, 8) ({ [3 x ptr] }, ptr @_ZTV12BlockClosure, i32 0, i32 0, i32 2), ptr %3, align 8
  ret void
}

; Function Attrs: mustprogress nounwind uwtable
define linkonce_odr hidden void @_ZN13PhiSimplifierC2EP10BlockBegin(ptr noundef nonnull align 8 dereferenceable(9) %0, ptr noundef %1) unnamed_addr #1 comdat align 2 {
  %3 = alloca ptr, align 8
  %4 = alloca ptr, align 8
  %5 = alloca %class.SubstitutionResolver, align 8
  store ptr %0, ptr %3, align 8
  store ptr %1, ptr %4, align 8
  %6 = load ptr, ptr %3, align 8
  call void @_ZN12BlockClosureC2Ev(ptr noundef nonnull align 8 dereferenceable(8) %6) #7
  store ptr getelementptr inbounds inrange(-16, 8) ({ [3 x ptr] }, ptr @_ZTV13PhiSimplifier, i32 0, i32 0, i32 2), ptr %6, align 8
  %7 = getelementptr inbounds %class.PhiSimplifier, ptr %6, i32 0, i32 1
  store i8 0, ptr %7, align 8
  %8 = load ptr, ptr %4, align 8
  call void @_ZN10BlockBegin16iterate_preorderEP12BlockClosure(ptr noundef nonnull align 8 dereferenceable(408) %8, ptr noundef %6)
  %9 = getelementptr inbounds %class.PhiSimplifier, ptr %6, i32 0, i32 1
  %10 = load i8, ptr %9, align 8
  %11 = trunc i8 %10 to i1
  br i1 %11, label %12, label %14

12:                                               ; preds = %2
  %13 = load ptr, ptr %4, align 8
  call void @_ZN20SubstitutionResolverC2EP10BlockBegin(ptr noundef nonnull align 8 dereferenceable(16) %5, ptr noundef %13)
  br label %14

14:                                               ; preds = %12, %2
  ret void
}

; Function Attrs: mustprogress nounwind uwtable
define hidden void @_ZN12GraphBuilder24eliminate_redundant_phisEP10BlockBegin(ptr noundef nonnull align 8 dereferenceable(97) %0, ptr noundef %1) #1 align 2 {
  %3 = alloca ptr, align 8
  %4 = alloca ptr, align 8
  %5 = alloca %class.PhiSimplifier, align 8
  store ptr %0, ptr %3, align 8
  store ptr %1, ptr %4, align 8
  %6 = load ptr, ptr %4, align 8
  call void @_ZN13PhiSimplifierC2EP10BlockBegin(ptr noundef nonnull align 8 dereferenceable(9) %5, ptr noundef %6)
  ret void
}