; Function Attrs: mustprogress nounwind uwtable
define hidden void @_ZN12GraphBuilder24eliminate_redundant_phisEP10BlockBegin(ptr nocapture noundef nonnull readnone align 8 dereferenceable(97) %0, ptr noundef nonnull %1) local_unnamed_addr #0 align 2 {
  %3 = alloca %class.SubstitutionResolver, align 8
  %4 = alloca %class.PhiSimplifier, align 8
  call void @llvm.lifetime.start.p0(i64 16, ptr nonnull %3)
  store ptr getelementptr inbounds inrange(-16, 8) (i8, ptr @_ZTV13PhiSimplifier, i64 16), ptr %4, align 8
  %5 = getelementptr inbounds i8, ptr %4, i64 8
  store i8 0, ptr %5, align 8
  call void @_ZN10BlockBegin16iterate_preorderEP12BlockClosure(ptr noundef nonnull align 8 dereferenceable(408) %1, ptr noundef nonnull %4) #19
  %6 = load i8, ptr %5, align 8
  %7 = trunc i8 %6 to i1
  br i1 %7, label %8, label %_ZN13PhiSimplifierC2EP10BlockBegin.exit

8:                                                ; preds = %2
  %9 = getelementptr inbounds i8, ptr %3, i64 8
  store ptr getelementptr inbounds inrange(-16, 16) (i8, ptr @_ZTV20SubstitutionResolver, i64 16), ptr %3, align 8
  store ptr getelementptr inbounds inrange(-16, 8) (i8, ptr @_ZTV20SubstitutionResolver, i64 48), ptr %9, align 8
  call void @_ZN10BlockBegin16iterate_preorderEP12BlockClosure(ptr noundef nonnull align 8 dereferenceable(408) %1, ptr noundef nonnull %3) #19
  br label %_ZN13PhiSimplifierC2EP10BlockBegin.exit

_ZN13PhiSimplifierC2EP10BlockBegin.exit:          ; preds = %2, %8
  call void @llvm.lifetime.end.p0(i64 16, ptr nonnull %3)
  ret void
}